; ModuleID = '2/1008.c'
source_filename = "2/1008.c"
target datalayout = "e-m:e-p270:32:32-p271:32:32-p272:64:64-i64:64-f80:128-n8:16:32:64-S128"
target triple = "x86_64-pc-linux-gnu"

%struct.data = type { i32, [27 x i8] }

@.str = private unnamed_addr constant [3 x i8] c"%d\00", align 1
@.str.1 = private unnamed_addr constant [6 x i8] c"%d %s\00", align 1
@.str.2 = private unnamed_addr constant [7 x i8] c"%c\0A%d\0A\00", align 1
@.str.3 = private unnamed_addr constant [4 x i8] c"%d\0A\00", align 1

; Function Attrs: noinline nounwind uwtable
define dso_local i32 @main() #0 {
  %1 = alloca i32, align 4
  %2 = alloca i32, align 4
  %3 = alloca i32, align 4
  %4 = alloca i32, align 4
  %5 = alloca [26 x i32], align 16
  %6 = alloca i32, align 4
  %7 = alloca i32, align 4
  %8 = alloca i32, align 4
  %9 = alloca [1000 x %struct.data], align 16
  store i32 0, i32* %1, align 4
  store i32 0, i32* %6, align 4
  %10 = call i32 (i8*, ...) @__isoc99_scanf(i8* getelementptr inbounds ([3 x i8], [3 x i8]* @.str, i64 0, i64 0), i32* %2)
  store i32 0, i32* %4, align 4
  br label %11

11:                                               ; preds = %18, %0
  %12 = load i32, i32* %4, align 4
  %13 = icmp sle i32 %12, 25
  br i1 %13, label %14, label %21

14:                                               ; preds = %11
  %15 = load i32, i32* %4, align 4
  %16 = sext i32 %15 to i64
  %17 = getelementptr inbounds [26 x i32], [26 x i32]* %5, i64 0, i64 %16
  store i32 0, i32* %17, align 4
  br label %18

18:                                               ; preds = %14
  %19 = load i32, i32* %4, align 4
  %20 = add nsw i32 %19, 1
  store i32 %20, i32* %4, align 4
  br label %11

21:                                               ; preds = %11
  store i32 0, i32* %3, align 4
  br label %22

22:                                               ; preds = %69, %21
  %23 = load i32, i32* %3, align 4
  %24 = load i32, i32* %2, align 4
  %25 = sub nsw i32 %24, 1
  %26 = icmp sle i32 %23, %25
  br i1 %26, label %27, label %72

27:                                               ; preds = %22
  %28 = load i32, i32* %3, align 4
  %29 = sext i32 %28 to i64
  %30 = getelementptr inbounds [1000 x %struct.data], [1000 x %struct.data]* %9, i64 0, i64 %29
  %31 = getelementptr inbounds %struct.data, %struct.data* %30, i32 0, i32 0
  %32 = load i32, i32* %3, align 4
  %33 = sext i32 %32 to i64
  %34 = getelementptr inbounds [1000 x %struct.data], [1000 x %struct.data]* %9, i64 0, i64 %33
  %35 = getelementptr inbounds %struct.data, %struct.data* %34, i32 0, i32 1
  %36 = getelementptr inbounds [27 x i8], [27 x i8]* %35, i64 0, i64 0
  %37 = call i32 (i8*, ...) @__isoc99_scanf(i8* getelementptr inbounds ([6 x i8], [6 x i8]* @.str.1, i64 0, i64 0), i32* %31, i8* %36)
  %38 = load i32, i32* %3, align 4
  %39 = sext i32 %38 to i64
  %40 = getelementptr inbounds [1000 x %struct.data], [1000 x %struct.data]* %9, i64 0, i64 %39
  %41 = getelementptr inbounds %struct.data, %struct.data* %40, i32 0, i32 1
  %42 = getelementptr inbounds [27 x i8], [27 x i8]* %41, i64 0, i64 0
  %43 = call i64 @strlen(i8* %42) #3
  %44 = trunc i64 %43 to i32
  store i32 %44, i32* %8, align 4
  store i32 0, i32* %4, align 4
  br label %45

45:                                               ; preds = %65, %27
  %46 = load i32, i32* %4, align 4
  %47 = load i32, i32* %8, align 4
  %48 = sub nsw i32 %47, 1
  %49 = icmp sle i32 %46, %48
  br i1 %49, label %50, label %68

50:                                               ; preds = %45
  %51 = load i32, i32* %3, align 4
  %52 = sext i32 %51 to i64
  %53 = getelementptr inbounds [1000 x %struct.data], [1000 x %struct.data]* %9, i64 0, i64 %52
  %54 = getelementptr inbounds %struct.data, %struct.data* %53, i32 0, i32 1
  %55 = load i32, i32* %4, align 4
  %56 = sext i32 %55 to i64
  %57 = getelementptr inbounds [27 x i8], [27 x i8]* %54, i64 0, i64 %56
  %58 = load i8, i8* %57, align 1
  %59 = sext i8 %58 to i32
  %60 = sub nsw i32 %59, 65
  %61 = sext i32 %60 to i64
  %62 = getelementptr inbounds [26 x i32], [26 x i32]* %5, i64 0, i64 %61
  %63 = load i32, i32* %62, align 4
  %64 = add nsw i32 %63, 1
  store i32 %64, i32* %62, align 4
  br label %65

65:                                               ; preds = %50
  %66 = load i32, i32* %4, align 4
  %67 = add nsw i32 %66, 1
  store i32 %67, i32* %4, align 4
  br label %45

68:                                               ; preds = %45
  br label %69

69:                                               ; preds = %68
  %70 = load i32, i32* %3, align 4
  %71 = add nsw i32 %70, 1
  store i32 %71, i32* %3, align 4
  br label %22

72:                                               ; preds = %22
  store i32 0, i32* %4, align 4
  br label %73

73:                                               ; preds = %90, %72
  %74 = load i32, i32* %4, align 4
  %75 = icmp sle i32 %74, 25
  br i1 %75, label %76, label %93

76:                                               ; preds = %73
  %77 = load i32, i32* %4, align 4
  %78 = sext i32 %77 to i64
  %79 = getelementptr inbounds [26 x i32], [26 x i32]* %5, i64 0, i64 %78
  %80 = load i32, i32* %79, align 4
  %81 = load i32, i32* %6, align 4
  %82 = icmp sgt i32 %80, %81
  br i1 %82, label %83, label %89

83:                                               ; preds = %76
  %84 = load i32, i32* %4, align 4
  %85 = sext i32 %84 to i64
  %86 = getelementptr inbounds [26 x i32], [26 x i32]* %5, i64 0, i64 %85
  %87 = load i32, i32* %86, align 4
  store i32 %87, i32* %6, align 4
  %88 = load i32, i32* %4, align 4
  store i32 %88, i32* %7, align 4
  br label %89

89:                                               ; preds = %83, %76
  br label %90

90:                                               ; preds = %89
  %91 = load i32, i32* %4, align 4
  %92 = add nsw i32 %91, 1
  store i32 %92, i32* %4, align 4
  br label %73

93:                                               ; preds = %73
  %94 = load i32, i32* %7, align 4
  %95 = add nsw i32 %94, 65
  %96 = load i32, i32* %6, align 4
  %97 = call i32 (i8*, ...) @printf(i8* getelementptr inbounds ([7 x i8], [7 x i8]* @.str.2, i64 0, i64 0), i32 %95, i32 %96)
  store i32 0, i32* %3, align 4
  br label %98

98:                                               ; preds = %141, %93
  %99 = load i32, i32* %3, align 4
  %100 = load i32, i32* %2, align 4
  %101 = sub nsw i32 %100, 1
  %102 = icmp sle i32 %99, %101
  br i1 %102, label %103, label %144

103:                                              ; preds = %98
  %104 = load i32, i32* %3, align 4
  %105 = sext i32 %104 to i64
  %106 = getelementptr inbounds [1000 x %struct.data], [1000 x %struct.data]* %9, i64 0, i64 %105
  %107 = getelementptr inbounds %struct.data, %struct.data* %106, i32 0, i32 1
  %108 = getelementptr inbounds [27 x i8], [27 x i8]* %107, i64 0, i64 0
  %109 = call i64 @strlen(i8* %108) #3
  %110 = trunc i64 %109 to i32
  store i32 %110, i32* %8, align 4
  store i32 0, i32* %4, align 4
  br label %111

111:                                              ; preds = %137, %103
  %112 = load i32, i32* %4, align 4
  %113 = load i32, i32* %8, align 4
  %114 = sub nsw i32 %113, 1
  %115 = icmp sle i32 %112, %114
  br i1 %115, label %116, label %140

116:                                              ; preds = %111
  %117 = load i32, i32* %3, align 4
  %118 = sext i32 %117 to i64
  %119 = getelementptr inbounds [1000 x %struct.data], [1000 x %struct.data]* %9, i64 0, i64 %118
  %120 = getelementptr inbounds %struct.data, %struct.data* %119, i32 0, i32 1
  %121 = load i32, i32* %4, align 4
  %122 = sext i32 %121 to i64
  %123 = getelementptr inbounds [27 x i8], [27 x i8]* %120, i64 0, i64 %122
  %124 = load i8, i8* %123, align 1
  %125 = sext i8 %124 to i32
  %126 = load i32, i32* %7, align 4
  %127 = add nsw i32 %126, 65
  %128 = icmp eq i32 %125, %127
  br i1 %128, label %129, label %136

129:                                              ; preds = %116
  %130 = load i32, i32* %3, align 4
  %131 = sext i32 %130 to i64
  %132 = getelementptr inbounds [1000 x %struct.data], [1000 x %struct.data]* %9, i64 0, i64 %131
  %133 = getelementptr inbounds %struct.data, %struct.data* %132, i32 0, i32 0
  %134 = load i32, i32* %133, align 16
  %135 = call i32 (i8*, ...) @printf(i8* getelementptr inbounds ([4 x i8], [4 x i8]* @.str.3, i64 0, i64 0), i32 %134)
  br label %140

136:                                              ; preds = %116
  br label %137

137:                                              ; preds = %136
  %138 = load i32, i32* %4, align 4
  %139 = add nsw i32 %138, 1
  store i32 %139, i32* %4, align 4
  br label %111

140:                                              ; preds = %129, %111
  br label %141

141:                                              ; preds = %140
  %142 = load i32, i32* %3, align 4
  %143 = add nsw i32 %142, 1
  store i32 %143, i32* %3, align 4
  br label %98

144:                                              ; preds = %98
  ret i32 0
}

declare dso_local i32 @__isoc99_scanf(i8*, ...) #1

; Function Attrs: nounwind readonly
declare dso_local i64 @strlen(i8*) #2

declare dso_local i32 @printf(i8*, ...) #1


!llvm.module.flags = !{!0}
!llvm.ident = !{!1}

!0 = !{i32 1, !"wchar_size", i32 4}
!1 = !{!"clang version 10.0.0-4ubuntu1 "}
